target datalayout = "e-m:e-p270:32:32-p271:32:32-p272:64:64-i64:64-i128:128-f80:128-n8:16:32:64-S128"
target triple = "x86_64-pc-linux-gnu"

%struct.Node = type { i32 }
%struct.Param = type { %struct.Expr, i32, i32, i32, i32, i32, i32 }
%struct.Expr = type { i32 }

; Function Attrs: nounwind uwtable
define internal zeroext i1 @pull_exec_paramids_walker(ptr noundef %0, ptr noundef %1) #0 {
  %3 = alloca i1, align 1
  %4 = alloca ptr, align 8
  %5 = alloca ptr, align 8
  %6 = alloca ptr, align 8
  store ptr %0, ptr %4, align 8
  store ptr %1, ptr %5, align 8
  %7 = load ptr, ptr %4, align 8
  %8 = icmp eq ptr %7, null
  br i1 %8, label %9, label %10

9:                                                ; preds = %2
  store i1 false, ptr %3, align 1
  br label %34

10:                                               ; preds = %2
  %11 = load ptr, ptr %4, align 8
  %12 = getelementptr inbounds nuw %struct.Node, ptr %11, i32 0, i32 0
  %13 = load i32, ptr %12, align 4
  %14 = icmp eq i32 %13, 8
  br i1 %14, label %15, label %30

15:                                               ; preds = %10
  call void @llvm.lifetime.start.p0(i64 8, ptr %6) #6
  %16 = load ptr, ptr %4, align 8
  store ptr %16, ptr %6, align 8
  %17 = load ptr, ptr %6, align 8
  %18 = getelementptr inbounds nuw %struct.Param, ptr %17, i32 0, i32 1
  %19 = load i32, ptr %18, align 4
  %20 = icmp eq i32 %19, 1
  br i1 %20, label %21, label %29

21:                                               ; preds = %15
  %22 = load ptr, ptr %5, align 8
  %23 = load ptr, ptr %22, align 8
  %24 = load ptr, ptr %6, align 8
  %25 = getelementptr inbounds nuw %struct.Param, ptr %24, i32 0, i32 2
  %26 = load i32, ptr %25, align 4
  %27 = call ptr @bms_add_member(ptr noundef %23, i32 noundef %26)
  %28 = load ptr, ptr %5, align 8
  store ptr %27, ptr %28, align 8
  br label %29

29:                                               ; preds = %21, %15
  store i1 false, ptr %3, align 1
  call void @llvm.lifetime.end.p0(i64 8, ptr %6) #6
  br label %34

30:                                               ; preds = %10
  %31 = load ptr, ptr %4, align 8
  %32 = load ptr, ptr %5, align 8
  %33 = call zeroext i1 @expression_tree_walker_impl(ptr noundef %31, ptr noundef @pull_exec_paramids_walker, ptr noundef %32)
  store i1 %33, ptr %3, align 1
  br label %34

34:                                               ; preds = %30, %29, %9
  %35 = load i1, ptr %3, align 1
  ret i1 %35
}