; Function Attrs: nounwind uwtable
define internal zeroext i1 @pull_exec_paramids_walker(ptr noundef %0, ptr noundef %1) #0 {
  %3 = icmp eq ptr %0, null
  br i1 %3, label %18, label %4

4:                                                ; preds = %2
  %5 = load i32, ptr %0, align 4
  %6 = icmp eq i32 %5, 8
  br i1 %6, label %7, label %16

7:                                                ; preds = %4
  %8 = getelementptr inbounds nuw i8, ptr %0, i64 4
  %9 = load i32, ptr %8, align 4
  %10 = icmp eq i32 %9, 1
  br i1 %10, label %11, label %18

11:                                               ; preds = %7
  %12 = load ptr, ptr %1, align 8
  %13 = getelementptr inbounds nuw i8, ptr %0, i64 8
  %14 = load i32, ptr %13, align 4
  %15 = tail call ptr @bms_add_member(ptr noundef %12, i32 noundef %14) #6
  store ptr %15, ptr %1, align 8
  br label %18

16:                                               ; preds = %4
  %17 = tail call zeroext i1 @expression_tree_walker_impl(ptr noundef nonnull %0, ptr noundef nonnull @pull_exec_paramids_walker, ptr noundef %1) #6
  br label %18

18:                                               ; preds = %7, %11, %2, %16
  %.0 = phi i1 [ %17, %16 ], [ false, %2 ], [ false, %11 ], [ false, %7 ]
  ret i1 %.0
}